; Function Attrs: mustprogress nofree nounwind willreturn memory(write, argmem: readwrite) uwtable
define void @getComplexPairFromRotation(double noundef %0, ptr noundef readonly byval(%struct.Vector) align 8 captures(none) %1, ptr noundef writeonly captures(none) initializes((0, 16)) %2, ptr noundef writeonly captures(none) initializes((0, 16)) %3) local_unnamed_addr #9 {
  %.sroa.08.0.copyload = load double, ptr %1, align 8
  %.sroa.49.0..sroa_idx = getelementptr inbounds nuw i8, ptr %1, i64 8
  %.sroa.49.0.copyload = load double, ptr %.sroa.49.0..sroa_idx, align 8
  %.sroa.5.0..sroa_idx = getelementptr inbounds nuw i8, ptr %1, i64 16
  %.sroa.5.0.copyload = load double, ptr %.sroa.5.0..sroa_idx, align 8
  %5 = fmul double %.sroa.49.0.copyload, %.sroa.49.0.copyload
  %6 = tail call double @llvm.fmuladd.f64(double %.sroa.08.0.copyload, double %.sroa.08.0.copyload, double %5)
  %7 = tail call double @llvm.fmuladd.f64(double %.sroa.5.0.copyload, double %.sroa.5.0.copyload, double %6)
  %sqrt.i.i = tail call double @llvm.sqrt.f64(double %7)
  %8 = fdiv double %.sroa.08.0.copyload, %sqrt.i.i
  %9 = fdiv double %.sroa.49.0.copyload, %sqrt.i.i
  %10 = fdiv double %.sroa.5.0.copyload, %sqrt.i.i
  %11 = fmul double %0, 5.000000e-01
  %12 = tail call double @cos(double noundef %11) #22, !tbaa !4
  store double %12, ptr %2, align 8, !tbaa !21
  %13 = tail call double @sin(double noundef %11) #22, !tbaa !4
  %14 = fneg double %13
  %15 = fmul double %10, %14
  %16 = getelementptr inbounds nuw i8, ptr %2, i64 8
  store double %15, ptr %16, align 8, !tbaa !23
  %17 = tail call double @sin(double noundef %11) #22, !tbaa !4
  %18 = fmul double %9, %17
  store double %18, ptr %3, align 8, !tbaa !21
  %19 = tail call double @sin(double noundef %11) #22, !tbaa !4
  %20 = fneg double %19
  %21 = fmul double %8, %20
  %22 = getelementptr inbounds nuw i8, ptr %3, i64 8
  store double %21, ptr %22, align 8, !tbaa !23
  ret void
}